; Function Attrs: alwaysinline norecurse nounwind uwtable
define internal void @_ZNK4ncnn15Flatten_x86_fma12forward_int8ERKNS_3MatERS1_RKNS_6OptionE.omp_outlined.6(ptr noalias noundef readonly captures(none) %0, ptr noalias readnone captures(none) %1, ptr noundef nonnull readonly align 4 captures(none) dereferenceable(4) %2, ptr noundef nonnull readonly align 8 captures(none) dereferenceable(72) %3, ptr noundef nonnull readonly align 8 captures(none) dereferenceable(72) %4, ptr noundef nonnull readonly align 4 captures(none) dereferenceable(4) %5) #9 personality ptr @__gxx_personality_v0 {
  %7 = alloca i32, align 4
  %8 = alloca i32, align 4
  %9 = alloca i32, align 4
  %10 = alloca i32, align 4
  %11 = load i32, ptr %2, align 4, !tbaa !25
  %12 = icmp sgt i32 %11, 0
  br i1 %12, label %13, label %46

13:                                               ; preds = %6
  %14 = add nsw i32 %11, -1
  call void @llvm.lifetime.start.p0(i64 4, ptr nonnull %7) #6
  store i32 0, ptr %7, align 4, !tbaa !25
  call void @llvm.lifetime.start.p0(i64 4, ptr nonnull %8) #6
  store i32 %14, ptr %8, align 4, !tbaa !25
  call void @llvm.lifetime.start.p0(i64 4, ptr nonnull %9) #6
  store i32 1, ptr %9, align 4, !tbaa !25
  call void @llvm.lifetime.start.p0(i64 4, ptr nonnull %10) #6
  store i32 0, ptr %10, align 4, !tbaa !25
  %15 = load i32, ptr %0, align 4, !tbaa !25
  call void @__kmpc_for_static_init_4(ptr nonnull @1, i32 %15, i32 34, ptr nonnull %10, ptr nonnull %7, ptr nonnull %8, ptr nonnull %9, i32 1, i32 1)
  %16 = load i32, ptr %8, align 4, !tbaa !25
  %17 = call i32 @llvm.smin.i32(i32 %16, i32 %14)
  store i32 %17, ptr %8, align 4, !tbaa !25
  %18 = load i32, ptr %7, align 4, !tbaa !25
  %.not34 = icmp sgt i32 %18, %17
  br i1 %.not34, label %._crit_edge36, label %.noexc.lr.ph

.noexc.lr.ph:                                     ; preds = %13
  %19 = getelementptr inbounds nuw i8, ptr %3, i64 64
  %20 = getelementptr inbounds nuw i8, ptr %3, i64 16
  %21 = load i32, ptr %5, align 4, !tbaa !25
  %22 = icmp sgt i32 %21, 0
  br i1 %22, label %.noexc.preheader, label %._crit_edge36

.noexc.preheader:                                 ; preds = %.noexc.lr.ph
  %23 = sext i32 %18 to i64
  br label %.noexc

.noexc:                                           ; preds = %.noexc.preheader, %._crit_edge
  %24 = phi i32 [ %17, %.noexc.preheader ], [ %43, %._crit_edge ]
  %25 = phi i32 [ %21, %.noexc.preheader ], [ %44, %._crit_edge ]
  %indvars.iv = phi i64 [ %23, %.noexc.preheader ], [ %indvars.iv.next, %._crit_edge ]
  %26 = icmp sgt i32 %25, 0
  br i1 %26, label %.lr.ph.preheader, label %._crit_edge

.lr.ph.preheader:                                 ; preds = %.noexc
  %27 = load ptr, ptr %4, align 8, !tbaa !17
  %28 = zext nneg i32 %25 to i64
  %29 = mul nsw i64 %indvars.iv, %28
  %30 = getelementptr inbounds i8, ptr %27, i64 %29
  %31 = load ptr, ptr %3, align 8, !tbaa !17, !noalias !83
  %32 = load i64, ptr %19, align 8, !tbaa !20, !noalias !83
  %33 = mul i64 %32, %indvars.iv
  %34 = load i64, ptr %20, align 8, !tbaa !13, !noalias !83
  %35 = mul i64 %33, %34
  %36 = getelementptr inbounds nuw i8, ptr %31, i64 %35
  br label %.lr.ph

.lr.ph:                                           ; preds = %.lr.ph.preheader, %.lr.ph
  %.033 = phi i32 [ %40, %.lr.ph ], [ 0, %.lr.ph.preheader ]
  %.02132 = phi ptr [ %39, %.lr.ph ], [ %30, %.lr.ph.preheader ]
  %.02231 = phi ptr [ %37, %.lr.ph ], [ %36, %.lr.ph.preheader ]
  %37 = getelementptr inbounds nuw i8, ptr %.02231, i64 1
  %38 = load i8, ptr %.02231, align 1, !tbaa !47
  %39 = getelementptr inbounds nuw i8, ptr %.02132, i64 1
  store i8 %38, ptr %.02132, align 1, !tbaa !47
  %40 = add nuw nsw i32 %.033, 1
  %41 = load i32, ptr %5, align 4, !tbaa !25
  %42 = icmp slt i32 %40, %41
  br i1 %42, label %.lr.ph, label %._crit_edge.loopexit, !llvm.loop !86

._crit_edge.loopexit:                             ; preds = %.lr.ph
  %.pre = load i32, ptr %8, align 4, !tbaa !25
  br label %._crit_edge

._crit_edge:                                      ; preds = %._crit_edge.loopexit, %.noexc
  %43 = phi i32 [ %.pre, %._crit_edge.loopexit ], [ %24, %.noexc ]
  %44 = phi i32 [ %41, %._crit_edge.loopexit ], [ %25, %.noexc ]
  %indvars.iv.next = add nsw i64 %indvars.iv, 1
  %45 = sext i32 %43 to i64
  %.not.not = icmp slt i64 %indvars.iv, %45
  br i1 %.not.not, label %.noexc, label %._crit_edge36, !llvm.loop !87

._crit_edge36:                                    ; preds = %._crit_edge, %.noexc.lr.ph, %13
  call void @__kmpc_for_static_fini(ptr nonnull @1, i32 %15)
  call void @llvm.lifetime.end.p0(i64 4, ptr nonnull %10) #6
  call void @llvm.lifetime.end.p0(i64 4, ptr nonnull %9) #6
  call void @llvm.lifetime.end.p0(i64 4, ptr nonnull %8) #6
  call void @llvm.lifetime.end.p0(i64 4, ptr nonnull %7) #6
  br label %46

46:                                               ; preds = %._crit_edge36, %6
  ret void
}